; Function Attrs: inlinehint nounwind uwtable
define internal fastcc void @malloc_mutex_lock(ptr noundef %0, ptr noundef %1) unnamed_addr #2 {
tsdn_witness_tsdp_get.exit:
  %2 = getelementptr inbounds nuw i8, ptr %1, i64 64
  %3 = tail call i32 @pthread_mutex_trylock(ptr noundef nonnull %2) #12
  %.not = icmp eq i32 %3, 0
  br i1 %.not, label %5, label %atomic_store_b.exit

atomic_store_b.exit:                              ; preds = %tsdn_witness_tsdp_get.exit
  tail call void @je_malloc_mutex_lock_slow(ptr noundef nonnull %1) #12
  %4 = getelementptr inbounds nuw i8, ptr %1, i64 104
  store atomic i8 1, ptr %4 monotonic, align 1
  br label %5

5:                                                ; preds = %atomic_store_b.exit, %tsdn_witness_tsdp_get.exit
  %6 = getelementptr inbounds nuw i8, ptr %1, i64 56
  %7 = load i64, ptr %6, align 8, !tbaa !8
  %8 = add i64 %7, 1
  store i64 %8, ptr %6, align 8, !tbaa !8
  %9 = getelementptr inbounds nuw i8, ptr %1, i64 48
  %10 = load ptr, ptr %9, align 8, !tbaa !15
  %.not.i = icmp eq ptr %10, %0
  br i1 %.not.i, label %mutex_owner_stats_update.exit, label %11

11:                                               ; preds = %5
  store ptr %0, ptr %9, align 8, !tbaa !15
  %12 = getelementptr inbounds nuw i8, ptr %1, i64 40
  %13 = load i64, ptr %12, align 8, !tbaa !16
  %14 = add i64 %13, 1
  store i64 %14, ptr %12, align 8, !tbaa !16
  br label %mutex_owner_stats_update.exit

mutex_owner_stats_update.exit:                    ; preds = %5, %11
  ret void
}